Certificate:
    Data:
        Version: 3 (0x2)
        Serial Number:
            ab:1e:b8:84:f2:89:c5:4d:70:30:62:d7:9d:8a:d8:ad
        Signature Algorithm: sha256WithRSAEncryption
        Issuer: CN=MyCA
        Validity
            Not Before: Nov 19 11:17:05 2025 GMT
            Not After : Feb 22 11:17:05 2028 GMT
        Subject: CN=PC2
        Subject Public Key Info:
            Public Key Algorithm: rsaEncryption
                Public-Key: (2048 bit)
                Modulus:
                    00:c4:d2:03:fd:39:db:d4:4a:76:33:c9:ba:2c:20:
                    53:03:eb:72:e4:40:f4:d3:f6:16:4a:16:66:23:96:
                    aa:96:1a:28:45:c4:27:81:ec:4a:d0:ed:f2:ee:52:
                    19:73:83:18:e2:0e:96:40:c6:99:27:2d:8c:5f:62:
                    e1:ab:21:f7:57:bf:51:0e:8a:88:fd:ff:3c:76:92:
                    36:00:2d:1c:da:54:f7:ab:ec:c4:f0:ce:6b:7d:37:
                    97:56:2d:27:16:21:3e:16:44:9a:b2:22:f5:37:54:
                    0d:ea:20:03:c4:d6:4c:a3:c1:b7:80:da:60:2b:ce:
                    7d:de:5d:33:95:2b:81:f6:5a:1e:fe:1e:37:02:17:
                    5f:8b:a0:c4:16:b5:28:c0:08:1a:e4:2e:f6:d4:df:
                    f0:39:ca:33:e2:40:38:f3:a6:e9:63:3c:ca:37:03:
                    80:40:9f:b2:50:5c:65:fc:75:28:79:d0:03:31:bd:
                    68:0d:53:55:f0:0e:85:db:80:da:29:76:04:ad:61:
                    2b:27:f5:4c:45:63:ff:2d:cc:03:c7:12:4f:36:78:
                    75:3f:ba:8a:1c:e9:c4:1f:b6:6d:f4:34:37:1c:5e:
                    dc:9e:0f:a3:45:4d:27:42:cb:1c:97:90:f8:80:81:
                    f1:67:dc:f2:9d:6f:86:19:00:ec:94:76:71:aa:31:
                    14:2b
                Exponent: 65537 (0x10001)
        X509v3 extensions:
            X509v3 Basic Constraints: 
                CA:FALSE
            X509v3 Subject Key Identifier: 
                56:8B:33:BC:40:90:A4:AE:63:7A:AA:0B:E8:11:18:F5:05:93:26:73
            X509v3 Authority Key Identifier: 
                keyid:73:5F:C9:E5:74:34:93:CE:C8:52:6F:2E:18:B4:06:84:22:2F:81:4D
                DirName:/CN=MyCA
                serial:31:02:38:78:8B:82:2E:02:10:2F:89:7F:EB:49:C7:CF:A9:EA:13:9C
            X509v3 Extended Key Usage: 
                TLS Web Client Authentication
            X509v3 Key Usage: 
                Digital Signature
    Signature Algorithm: sha256WithRSAEncryption
    Signature Value:
        59:24:51:57:7d:1a:e2:4e:7f:a3:39:b3:55:36:42:8e:e9:25:
        ef:fa:4d:6e:d0:60:e1:7f:b5:00:ef:ca:e7:2e:01:12:4d:4b:
        6a:6f:16:c3:ca:93:cd:e2:14:f6:d5:22:0d:f3:1f:e6:e6:a7:
        84:b2:a8:75:64:f0:1c:58:32:ea:b0:c5:10:a9:f5:6e:36:65:
        19:06:11:2a:71:d0:74:25:f4:e9:19:1c:e1:bc:38:af:36:fc:
        1a:6f:00:3d:f9:88:af:61:20:35:fc:df:30:89:27:69:02:06:
        4a:7c:7a:b8:d4:a4:9c:d9:a1:72:48:fb:b3:47:10:cb:c8:24:
        01:bc:70:6c:3a:5a:24:b0:d6:93:f8:8d:d6:6e:48:84:7e:44:
        eb:1e:99:8a:35:ca:9e:88:13:c8:76:47:81:91:ca:fb:79:0f:
        05:49:7e:fe:87:b7:0a:48:8e:7e:09:98:fc:7c:a8:81:5a:87:
        8d:7c:5f:cf:a1:1e:20:74:2e:64:a2:f7:92:f5:12:e3:e3:03:
        0d:ad:f7:c1:38:2f:31:ea:40:0c:e7:07:fc:1a:53:81:ac:6a:
        00:b1:1a:af:21:cf:2e:e5:4c:6b:27:e5:d3:09:df:f0:2e:12:
        ef:e2:a0:47:e0:ed:e8:b7:1d:03:1a:12:b7:30:d0:45:15:9a:
        77:13:c0:87
-----BEGIN CERTIFICATE-----
MIIDRDCCAiygAwIBAgIRAKseuITyicVNcDBi152K2K0wDQYJKoZIhvcNAQELBQAw
DzENMAsGA1UEAwwETXlDQTAeFw0yNTExMTkxMTE3MDVaFw0yODAyMjIxMTE3MDVa
MA4xDDAKBgNVBAMMA1BDMjCCASIwDQYJKoZIhvcNAQEBBQADggEPADCCAQoCggEB
AMTSA/0529RKdjPJuiwgUwPrcuRA9NP2FkoWZiOWqpYaKEXEJ4HsStDt8u5SGXOD
GOIOlkDGmSctjF9i4ash91e/UQ6KiP3/PHaSNgAtHNpU96vsxPDOa303l1YtJxYh
PhZEmrIi9TdUDeogA8TWTKPBt4DaYCvOfd5dM5UrgfZaHv4eNwIXX4ugxBa1KMAI
GuQu9tTf8DnKM+JAOPOm6WM8yjcDgECfslBcZfx1KHnQAzG9aA1TVfAOhduA2il2
BK1hKyf1TEVj/y3MA8cSTzZ4dT+6ihzpxB+2bfQ0Nxxe3J4Po0VNJ0LLHJeQ+ICB
8Wfc8p1vhhkA7JR2caoxFCsCAwEAAaOBmzCBmDAJBgNVHRMEAjAAMB0GA1UdDgQW
BBRWizO8QJCkrmN6qgvoERj1BZMmczBKBgNVHSMEQzBBgBRzX8nldDSTzshSby4Y
tAaEIi+BTaETpBEwDzENMAsGA1UEAwwETXlDQYIUMQI4eIuCLgIQL4l/60nHz6nq
E5wwEwYDVR0lBAwwCgYIKwYBBQUHAwIwCwYDVR0PBAQDAgeAMA0GCSqGSIb3DQEB
CwUAA4IBAQBZJFFXfRriTn+jObNVNkKO6SXv+k1u0GDhf7UA78rnLgESTUtqbxbD
ypPN4hT21SIN8x/m5qeEsqh1ZPAcWDLqsMUQqfVuNmUZBhEqcdB0JfTpGRzhvDiv
NvwabwA9+YivYSA1/N8wiSdpAgZKfHq41KSc2aFySPuzRxDLyCQBvHBsOloksNaT
+I3WbkiEfkTrHpmKNcqeiBPIdkeBkcr7eQ8FSX7+h7cKSI5+CZj8fKiBWoeNfF/P
oR4gdC5koveS9RLj4wMNrffBOC8x6kAM5wf8GlOBrGoAsRqvIc8u5UxrJ+XTCd/w
LhLv4qBH4O3otx0DGhK3MNBFFZp3E8CH
-----END CERTIFICATE-----
