Certificate:
    Data:
        Version: 3 (0x2)
        Serial Number:
            aa:e4:f4:6a:ac:b2:db:47:f7:06:8d:73:35:b2:ca:8e
        Signature Algorithm: sha256WithRSAEncryption
        Issuer: CN=1985026
        Validity
            Not Before: Dec 13 13:40:31 2025 GMT
            Not After : Mar 17 13:40:31 2028 GMT
        Subject: CN=vpn_client_1
        Subject Public Key Info:
            Public Key Algorithm: rsaEncryption
                Public-Key: (2048 bit)
                Modulus:
                    00:d0:60:49:f5:6e:b6:e3:45:8b:ec:5d:0a:1d:dd:
                    08:42:32:ff:a8:5a:fd:2c:76:b0:58:2c:c8:93:1e:
                    8d:2b:63:fb:c2:95:8f:a3:21:b1:3a:82:ee:fd:47:
                    1d:f5:b6:19:20:b3:53:4a:8f:26:94:4b:d1:63:71:
                    ac:0c:ec:f5:3d:bc:6d:6d:ae:8c:89:b9:9e:92:3a:
                    fe:a8:ff:6f:ca:4d:a5:b6:a5:cc:f2:79:e7:38:70:
                    d9:c1:64:0b:7c:39:d2:db:fd:67:2e:13:92:20:ea:
                    c5:16:cc:25:23:f0:ad:e5:e2:3f:ae:a0:89:5e:8c:
                    7c:20:40:62:f7:ba:5a:f7:64:dc:c9:6c:fe:b5:3e:
                    a0:21:9f:a2:df:80:0d:66:3d:52:7e:a5:92:d5:42:
                    24:36:8b:dd:3c:9e:e9:47:a3:e9:65:f0:8e:32:be:
                    2d:b2:39:75:ca:be:6e:28:e8:9a:29:85:df:03:15:
                    68:40:03:e0:9a:be:30:80:cd:98:17:09:be:82:33:
                    ac:cd:92:3f:f2:10:e1:79:3b:0d:6a:28:59:6a:4a:
                    50:d2:54:66:ba:69:7e:1a:17:09:a2:81:72:89:37:
                    c1:7a:0e:80:52:86:3b:d7:51:85:2b:9a:04:5d:4b:
                    27:26:b2:44:12:34:ff:c9:f6:29:54:28:7c:d8:11:
                    51:ef
                Exponent: 65537 (0x10001)
        X509v3 extensions:
            X509v3 Basic Constraints: 
                CA:FALSE
            X509v3 Subject Key Identifier: 
                25:7E:AF:88:7E:1E:00:1D:AF:A7:46:D3:F1:B3:6A:1D:5E:43:AD:10
            X509v3 Authority Key Identifier: 
                keyid:AF:91:67:F0:96:49:A2:7B:25:BA:9D:59:21:96:D0:0B:9C:A6:3B:50
                DirName:/CN=1985026
                serial:76:DC:19:23:08:3F:E6:E1:8A:0B:E1:9F:C7:BE:E9:89:F3:4A:A1:03
            X509v3 Extended Key Usage: 
                TLS Web Client Authentication
            X509v3 Key Usage: 
                Digital Signature
    Signature Algorithm: sha256WithRSAEncryption
    Signature Value:
        af:cc:d8:a3:83:0e:0b:92:22:6e:ae:23:e9:48:df:0d:03:91:
        18:ed:e0:58:af:f2:5e:7c:b0:41:72:8c:05:ef:d3:52:db:f6:
        b7:6f:d1:3a:69:73:a4:be:3d:ac:b8:b2:af:3b:8a:71:c2:f4:
        5c:5f:9c:f3:7a:8e:a5:38:3d:7b:10:e3:80:ca:06:62:68:8d:
        9b:df:33:c8:97:96:bd:ee:5a:fa:23:3c:37:19:2e:8d:eb:df:
        06:c3:27:0a:fe:de:68:c7:17:fb:25:b4:ca:8a:2e:25:c6:fe:
        96:04:6c:cc:0f:4d:ca:9b:90:25:b9:cb:89:05:0c:75:e6:f3:
        22:d2:d3:f9:c7:39:85:fb:b7:dd:1f:e1:e4:e4:68:5e:3f:a7:
        8b:0d:c3:78:34:4b:39:07:39:49:ee:54:0d:82:d8:39:35:d7:
        da:b0:57:89:90:68:cd:0a:c8:43:a3:f8:d8:58:7c:c9:c1:f8:
        0d:22:77:d7:dd:8c:49:a9:80:16:4a:f8:89:86:bf:12:9f:69:
        38:7d:68:03:98:b0:97:cb:2d:fe:7e:28:31:fa:59:0a:98:ac:
        8d:2a:85:b8:6a:63:81:05:f8:3a:21:89:aa:66:b0:97:58:40:
        0b:7a:98:3c:0a:18:88:a7:e0:76:67:7b:14:3a:8a:88:13:87:
        13:ff:46:72
-----BEGIN CERTIFICATE-----
MIIDUzCCAjugAwIBAgIRAKrk9GqssttH9waNczWyyo4wDQYJKoZIhvcNAQELBQAw
EjEQMA4GA1UEAwwHMTk4NTAyNjAeFw0yNTEyMTMxMzQwMzFaFw0yODAzMTcxMzQw
MzFaMBcxFTATBgNVBAMMDHZwbl9jbGllbnRfMTCCASIwDQYJKoZIhvcNAQEBBQAD
ggEPADCCAQoCggEBANBgSfVutuNFi+xdCh3dCEIy/6ha/Sx2sFgsyJMejStj+8KV
j6MhsTqC7v1HHfW2GSCzU0qPJpRL0WNxrAzs9T28bW2ujIm5npI6/qj/b8pNpbal
zPJ55zhw2cFkC3w50tv9Zy4TkiDqxRbMJSPwreXiP66giV6MfCBAYve6Wvdk3Mls
/rU+oCGfot+ADWY9Un6lktVCJDaL3Tye6Uej6WXwjjK+LbI5dcq+bijomimF3wMV
aEAD4Jq+MIDNmBcJvoIzrM2SP/IQ4Xk7DWooWWpKUNJUZrppfhoXCaKBcok3wXoO
gFKGO9dRhSuaBF1LJyayRBI0/8n2KVQofNgRUe8CAwEAAaOBnjCBmzAJBgNVHRME
AjAAMB0GA1UdDgQWBBQlfq+Ifh4AHa+nRtPxs2odXkOtEDBNBgNVHSMERjBEgBSv
kWfwlkmieyW6nVkhltALnKY7UKEWpBQwEjEQMA4GA1UEAwwHMTk4NTAyNoIUdtwZ
Iwg/5uGKC+Gfx77pifNKoQMwEwYDVR0lBAwwCgYIKwYBBQUHAwIwCwYDVR0PBAQD
AgeAMA0GCSqGSIb3DQEBCwUAA4IBAQCvzNijgw4LkiJuriPpSN8NA5EY7eBYr/Je
fLBBcowF79NS2/a3b9E6aXOkvj2suLKvO4pxwvRcX5zzeo6lOD17EOOAygZiaI2b
3zPIl5a97lr6Izw3GS6N698GwycK/t5oxxf7JbTKii4lxv6WBGzMD03Km5AlucuJ
BQx15vMi0tP5xzmF+7fdH+Hk5GheP6eLDcN4NEs5BzlJ7lQNgtg5NdfasFeJkGjN
CshDo/jYWHzJwfgNInfX3YxJqYAWSviJhr8Sn2k4fWgDmLCXyy3+figx+lkKmKyN
KoW4amOBBfg6IYmqZrCXWEALepg8ChiIp+B2Z3sUOoqIE4cT/0Zy
-----END CERTIFICATE-----
