Certificate:
    Data:
        Version: 3 (0x2)
        Serial Number:
            b0:24:b1:2b:40:f5:c9:b3:0f:14:07:b9:6c:5d:ac:e1
        Signature Algorithm: sha256WithRSAEncryption
        Issuer: CN=MyCA
        Validity
            Not Before: Nov 19 11:16:48 2025 GMT
            Not After : Feb 22 11:16:48 2028 GMT
        Subject: CN=PC1
        Subject Public Key Info:
            Public Key Algorithm: rsaEncryption
                Public-Key: (2048 bit)
                Modulus:
                    00:b0:41:ab:3f:fe:18:77:a3:1b:de:8a:61:f0:8f:
                    6b:dd:5d:19:d8:a3:f3:1d:1d:f8:6a:4e:79:d0:5c:
                    b0:2f:b3:6c:11:d5:be:7c:02:e5:97:85:99:3e:51:
                    6e:8c:db:fc:cb:fb:5f:4e:48:0a:89:78:97:3d:39:
                    9f:f5:97:f3:5f:ac:a0:82:9b:18:6c:02:82:83:43:
                    9d:04:cc:ff:cf:02:f5:8e:4a:b4:a9:d7:77:58:6e:
                    27:7f:7d:f7:22:a3:19:44:74:5c:87:86:b3:45:3b:
                    a6:ec:e4:2f:76:94:2d:f4:e7:b7:70:44:bb:b0:ea:
                    47:7e:84:ff:0e:2e:ce:51:75:68:26:de:e3:4c:2c:
                    23:c0:74:1f:6b:5b:f0:78:c6:41:ea:22:73:a2:7b:
                    c5:ec:92:ec:6d:d7:5d:6b:39:9d:3a:9b:52:30:16:
                    ab:ff:4f:98:54:35:56:c7:be:51:49:7a:d5:e2:0f:
                    59:58:57:b1:8e:b9:41:70:25:a5:2e:74:65:37:13:
                    5d:7e:ba:f6:50:ad:72:8e:14:3f:93:05:f8:a2:48:
                    67:f7:76:40:cf:62:ca:20:73:2b:65:03:69:6a:78:
                    21:95:cc:b5:2f:1f:0d:e2:72:53:82:cb:95:94:ea:
                    e3:86:e1:8d:87:c7:40:aa:2f:97:24:17:99:8c:07:
                    5c:71
                Exponent: 65537 (0x10001)
        X509v3 extensions:
            X509v3 Basic Constraints: 
                CA:FALSE
            X509v3 Subject Key Identifier: 
                D9:A9:EB:76:67:1A:A7:DC:B3:E3:F9:2C:0C:B9:45:4B:23:12:24:74
            X509v3 Authority Key Identifier: 
                keyid:73:5F:C9:E5:74:34:93:CE:C8:52:6F:2E:18:B4:06:84:22:2F:81:4D
                DirName:/CN=MyCA
                serial:31:02:38:78:8B:82:2E:02:10:2F:89:7F:EB:49:C7:CF:A9:EA:13:9C
            X509v3 Extended Key Usage: 
                TLS Web Client Authentication
            X509v3 Key Usage: 
                Digital Signature
    Signature Algorithm: sha256WithRSAEncryption
    Signature Value:
        39:9a:37:9c:ad:e5:3a:68:ce:08:6d:9d:83:8c:41:89:1c:e5:
        59:da:3b:7b:7a:08:23:16:2d:ed:5e:f6:e9:c3:45:2a:67:4a:
        10:9c:24:b8:7e:22:0d:0c:7c:5f:45:25:6d:cc:ec:dc:c4:79:
        65:a5:59:0c:a5:04:6c:71:f7:f5:c5:68:1f:01:8b:eb:75:30:
        fe:a1:4a:0b:8a:f8:94:8a:0f:5d:e5:13:88:b6:52:88:32:2f:
        05:97:b2:3c:ae:b1:a4:be:d2:d1:24:7f:fc:e6:65:32:5a:4e:
        18:aa:9c:b7:e0:79:f1:76:fd:40:66:35:52:aa:05:8a:f6:1d:
        5c:85:75:72:31:4b:6c:a0:2c:d4:16:b3:3d:9f:86:73:eb:79:
        1a:9b:f2:b6:92:8f:5e:61:12:03:74:2e:5c:ea:f8:89:85:98:
        fc:2d:5f:45:68:64:36:a9:c2:01:eb:84:80:30:b4:33:30:df:
        90:91:1b:f3:bd:88:fd:82:14:de:74:77:56:d7:dd:65:eb:67:
        7c:a0:ef:a1:90:a3:53:bb:b8:af:10:3d:51:aa:d9:fb:79:c9:
        d6:7e:37:7a:1e:d7:b2:4e:5c:09:11:df:4e:a3:75:07:5f:cf:
        46:ad:59:6c:77:62:45:e5:77:89:d9:cb:9e:87:63:e7:f8:c9:
        49:f6:20:ed
-----BEGIN CERTIFICATE-----
MIIDRDCCAiygAwIBAgIRALAksStA9cmzDxQHuWxdrOEwDQYJKoZIhvcNAQELBQAw
DzENMAsGA1UEAwwETXlDQTAeFw0yNTExMTkxMTE2NDhaFw0yODAyMjIxMTE2NDha
MA4xDDAKBgNVBAMMA1BDMTCCASIwDQYJKoZIhvcNAQEBBQADggEPADCCAQoCggEB
ALBBqz/+GHejG96KYfCPa91dGdij8x0d+GpOedBcsC+zbBHVvnwC5ZeFmT5Rbozb
/Mv7X05ICol4lz05n/WX81+soIKbGGwCgoNDnQTM/88C9Y5KtKnXd1huJ3999yKj
GUR0XIeGs0U7puzkL3aULfTnt3BEu7DqR36E/w4uzlF1aCbe40wsI8B0H2tb8HjG
Qeoic6J7xeyS7G3XXWs5nTqbUjAWq/9PmFQ1Vse+UUl61eIPWVhXsY65QXAlpS50
ZTcTXX669lCtco4UP5MF+KJIZ/d2QM9iyiBzK2UDaWp4IZXMtS8fDeJyU4LLlZTq
44bhjYfHQKovlyQXmYwHXHECAwEAAaOBmzCBmDAJBgNVHRMEAjAAMB0GA1UdDgQW
BBTZqet2Zxqn3LPj+SwMuUVLIxIkdDBKBgNVHSMEQzBBgBRzX8nldDSTzshSby4Y
tAaEIi+BTaETpBEwDzENMAsGA1UEAwwETXlDQYIUMQI4eIuCLgIQL4l/60nHz6nq
E5wwEwYDVR0lBAwwCgYIKwYBBQUHAwIwCwYDVR0PBAQDAgeAMA0GCSqGSIb3DQEB
CwUAA4IBAQA5mjecreU6aM4IbZ2DjEGJHOVZ2jt7eggjFi3tXvbpw0UqZ0oQnCS4
fiINDHxfRSVtzOzcxHllpVkMpQRscff1xWgfAYvrdTD+oUoLiviUig9d5ROItlKI
Mi8Fl7I8rrGkvtLRJH/85mUyWk4Yqpy34Hnxdv1AZjVSqgWK9h1chXVyMUtsoCzU
FrM9n4Zz63kam/K2ko9eYRIDdC5c6viJhZj8LV9FaGQ2qcIB64SAMLQzMN+QkRvz
vYj9ghTedHdW191l62d8oO+hkKNTu7ivED1Rqtn7ecnWfjd6HteyTlwJEd9Oo3UH
X89GrVlsd2JF5XeJ2cueh2Pn+MlJ9iDt
-----END CERTIFICATE-----
