Certificate:
    Data:
        Version: 3 (0x2)
        Serial Number:
            1f:82:b8:d9:61:7b:86:48:57:ad:cd:82:1b:30:dc:f4
        Signature Algorithm: sha256WithRSAEncryption
        Issuer: CN=1985026
        Validity
            Not Before: Dec 13 13:39:22 2025 GMT
            Not After : Mar 17 13:39:22 2028 GMT
        Subject: CN=vpn_server
        Subject Public Key Info:
            Public Key Algorithm: rsaEncryption
                Public-Key: (2048 bit)
                Modulus:
                    00:9e:68:69:0c:a9:a8:2c:3d:a2:b7:ef:2b:7d:99:
                    94:7d:05:17:21:33:68:bc:ec:6f:3e:68:94:4b:a5:
                    d7:8a:94:a6:10:d6:7f:5b:41:b3:49:20:03:cb:0b:
                    60:b9:51:dc:8f:37:21:61:4f:b2:80:ac:3d:91:be:
                    c7:20:8c:ab:0d:38:a7:fa:80:ae:68:e6:44:de:72:
                    89:b0:75:86:62:03:7c:31:db:e2:7a:0c:e9:24:6e:
                    c6:01:d5:d6:db:88:c5:0b:bb:8b:54:97:f5:95:8f:
                    2c:3b:46:e5:a7:a1:68:25:69:3a:83:82:6c:56:74:
                    51:8f:09:ff:80:05:a6:75:98:c1:d5:01:cb:85:b8:
                    fe:1d:2e:bb:90:75:8e:f6:15:82:ad:87:bc:e2:fa:
                    a5:f2:17:8c:f7:55:e3:dd:7b:d6:e2:99:ef:1c:26:
                    ed:7c:38:67:07:12:58:8c:d4:a1:ad:d3:cb:bd:05:
                    11:f1:b4:5c:b1:d9:15:bf:03:9c:2d:84:1e:41:64:
                    df:62:1c:01:de:98:3b:91:8f:59:ea:d3:66:50:45:
                    0c:4e:48:e2:15:20:09:27:d5:e4:85:d9:95:31:c7:
                    17:e2:26:4a:d5:b5:f9:45:ef:ef:cc:78:42:a1:ed:
                    cc:f4:a5:79:4e:d3:13:32:2e:98:1e:e1:e3:a9:bf:
                    10:63
                Exponent: 65537 (0x10001)
        X509v3 extensions:
            X509v3 Basic Constraints: 
                CA:FALSE
            X509v3 Subject Key Identifier: 
                EC:0A:C3:56:C2:9B:22:83:18:7D:29:12:9B:5F:04:40:86:EA:F5:35
            X509v3 Authority Key Identifier: 
                keyid:AF:91:67:F0:96:49:A2:7B:25:BA:9D:59:21:96:D0:0B:9C:A6:3B:50
                DirName:/CN=1985026
                serial:76:DC:19:23:08:3F:E6:E1:8A:0B:E1:9F:C7:BE:E9:89:F3:4A:A1:03
            X509v3 Extended Key Usage: 
                TLS Web Server Authentication
            X509v3 Key Usage: 
                Digital Signature, Key Encipherment
            X509v3 Subject Alternative Name: 
                DNS:vpn_server
    Signature Algorithm: sha256WithRSAEncryption
    Signature Value:
        74:35:6a:cd:dc:f6:67:04:4d:33:bd:73:f5:1d:d4:9d:40:53:
        65:0a:4c:e9:8a:d2:76:53:8e:46:6c:76:d2:49:9d:7c:37:92:
        ca:c6:9d:39:a5:83:21:bb:70:f9:2c:de:45:11:fe:6b:54:ba:
        26:6f:7e:c0:fd:57:eb:83:52:10:6e:ea:cf:65:03:a2:b1:a4:
        ba:cf:33:df:4e:d6:80:15:ab:21:67:39:9b:1c:3f:93:ef:3f:
        e6:0a:dc:5c:ae:05:b3:ce:df:fb:d2:9f:20:aa:ba:4b:c3:63:
        26:f5:49:93:de:ee:34:e0:ea:f9:23:55:3b:0e:6b:5a:da:08:
        4a:6a:d2:a2:4f:33:d9:55:43:36:5b:b0:f7:cd:17:79:c6:48:
        9a:b5:ad:8e:d1:38:73:85:7a:0e:bc:22:ee:9c:84:09:2e:2b:
        ff:e9:b7:a4:a5:a8:bf:a8:4f:14:7e:8e:e4:56:13:2a:c7:06:
        16:3d:e5:5e:fe:74:5a:37:3a:ba:42:fb:67:cf:c3:8b:54:6e:
        4a:4a:9a:63:23:69:0d:d6:db:4d:f6:89:7e:4b:e4:02:ec:a5:
        67:10:22:ad:19:bb:b2:9c:e0:3b:9a:a6:3b:62:39:aa:c9:73:
        5c:ee:62:6b:1c:d6:66:f1:80:b1:21:23:5e:36:62:8f:34:26:
        85:ec:c1:87
-----BEGIN CERTIFICATE-----
MIIDZzCCAk+gAwIBAgIQH4K42WF7hkhXrc2CGzDc9DANBgkqhkiG9w0BAQsFADAS
MRAwDgYDVQQDDAcxOTg1MDI2MB4XDTI1MTIxMzEzMzkyMloXDTI4MDMxNzEzMzky
MlowFTETMBEGA1UEAwwKdnBuX3NlcnZlcjCCASIwDQYJKoZIhvcNAQEBBQADggEP
ADCCAQoCggEBAJ5oaQypqCw9orfvK32ZlH0FFyEzaLzsbz5olEul14qUphDWf1tB
s0kgA8sLYLlR3I83IWFPsoCsPZG+xyCMqw04p/qArmjmRN5yibB1hmIDfDHb4noM
6SRuxgHV1tuIxQu7i1SX9ZWPLDtG5aehaCVpOoOCbFZ0UY8J/4AFpnWYwdUBy4W4
/h0uu5B1jvYVgq2HvOL6pfIXjPdV49171uKZ7xwm7Xw4ZwcSWIzUoa3Ty70FEfG0
XLHZFb8DnC2EHkFk32IcAd6YO5GPWerTZlBFDE5I4hUgCSfV5IXZlTHHF+ImStW1
+UXv78x4QqHtzPSleU7TEzIumB7h46m/EGMCAwEAAaOBtTCBsjAJBgNVHRMEAjAA
MB0GA1UdDgQWBBTsCsNWwpsigxh9KRKbXwRAhur1NTBNBgNVHSMERjBEgBSvkWfw
lkmieyW6nVkhltALnKY7UKEWpBQwEjEQMA4GA1UEAwwHMTk4NTAyNoIUdtwZIwg/
5uGKC+Gfx77pifNKoQMwEwYDVR0lBAwwCgYIKwYBBQUHAwEwCwYDVR0PBAQDAgWg
MBUGA1UdEQQOMAyCCnZwbl9zZXJ2ZXIwDQYJKoZIhvcNAQELBQADggEBAHQ1as3c
9mcETTO9c/Ud1J1AU2UKTOmK0nZTjkZsdtJJnXw3ksrGnTmlgyG7cPks3kUR/mtU
uiZvfsD9V+uDUhBu6s9lA6KxpLrPM99O1oAVqyFnOZscP5PvP+YK3FyuBbPO3/vS
nyCqukvDYyb1SZPe7jTg6vkjVTsOa1raCEpq0qJPM9lVQzZbsPfNF3nGSJq1rY7R
OHOFeg68Iu6chAkuK//pt6SlqL+oTxR+juRWEyrHBhY95V7+dFo3OrpC+2fPw4tU
bkpKmmMjaQ3W2032iX5L5ALspWcQIq0Zu7Kc4DuapjtiOarJc1zuYmsc1mbxgLEh
I142Yo80JoXswYc=
-----END CERTIFICATE-----
