Certificate:
    Data:
        Version: 3 (0x2)
        Serial Number:
            52:e8:ae:f0:c5:c7:c6:5d:a1:68:00:25:40:83:55:af
        Signature Algorithm: sha256WithRSAEncryption
        Issuer: CN=1985026
        Validity
            Not Before: Dec 13 13:40:44 2025 GMT
            Not After : Mar 17 13:40:44 2028 GMT
        Subject: CN=vpn_client_2
        Subject Public Key Info:
            Public Key Algorithm: rsaEncryption
                Public-Key: (2048 bit)
                Modulus:
                    00:b5:61:91:55:20:9d:87:d1:08:c9:40:0b:90:b3:
                    04:c6:41:01:b0:2e:f3:a5:77:c4:56:51:93:a7:61:
                    4a:27:08:59:c2:50:d7:28:cd:a0:fb:b3:15:ad:c2:
                    7f:91:d1:9d:af:3f:cd:a5:c7:74:ae:50:7e:01:83:
                    67:da:95:c7:6e:ae:fb:68:84:a0:13:c1:ed:58:b7:
                    00:5e:62:d9:55:22:69:86:bf:35:39:c5:0d:ab:6b:
                    ae:a9:a3:90:f4:0c:09:07:1c:f0:be:e5:fb:3c:3c:
                    2e:9f:9c:e1:8a:2e:b4:cc:e0:cd:c6:3e:a1:91:fe:
                    c5:ba:08:b5:9c:41:20:66:fe:82:37:89:47:87:f1:
                    cd:e3:d0:19:c2:86:1a:58:5a:10:26:59:d6:f4:d5:
                    9d:42:c8:21:4b:d7:71:50:38:15:75:1d:42:ad:21:
                    d8:93:ea:9c:ee:7e:bb:29:32:95:59:4c:07:99:98:
                    b8:75:ed:9d:73:5a:99:76:38:76:da:07:dd:24:ab:
                    45:ad:41:05:ab:08:3f:cf:50:3b:6c:da:90:fd:5f:
                    b2:3c:e3:a5:3d:d3:07:1d:d7:a7:0c:dd:f2:be:78:
                    dc:b7:05:b4:77:e3:73:04:c9:c6:fc:8d:7e:a4:d8:
                    6c:d8:a9:c5:29:62:83:c6:42:ea:b5:e3:04:d5:0d:
                    40:ad
                Exponent: 65537 (0x10001)
        X509v3 extensions:
            X509v3 Basic Constraints: 
                CA:FALSE
            X509v3 Subject Key Identifier: 
                9E:22:B5:E0:A6:32:0B:52:48:D1:1D:D9:5C:DB:C5:DC:D4:32:BB:D3
            X509v3 Authority Key Identifier: 
                keyid:AF:91:67:F0:96:49:A2:7B:25:BA:9D:59:21:96:D0:0B:9C:A6:3B:50
                DirName:/CN=1985026
                serial:76:DC:19:23:08:3F:E6:E1:8A:0B:E1:9F:C7:BE:E9:89:F3:4A:A1:03
            X509v3 Extended Key Usage: 
                TLS Web Client Authentication
            X509v3 Key Usage: 
                Digital Signature
    Signature Algorithm: sha256WithRSAEncryption
    Signature Value:
        de:55:c7:f6:c8:08:16:eb:b7:1e:91:6e:4c:dc:0b:d5:49:ad:
        a3:19:c3:a1:44:6c:d5:1a:c5:1c:6a:08:6e:62:59:85:26:46:
        50:9c:5f:52:ce:97:38:d7:20:19:af:6f:26:76:91:15:e0:54:
        d8:68:44:00:e4:23:e8:11:b4:71:ea:dd:0e:46:55:a6:fe:93:
        2e:af:15:f4:3d:0b:ea:22:0e:7d:30:8e:50:35:e3:22:e1:40:
        84:d5:2e:55:3b:4d:8b:e4:e2:38:9c:11:1c:e8:d9:d1:53:8f:
        06:80:ff:80:52:80:71:e9:bf:dc:56:c2:21:bf:93:d0:d3:a4:
        7e:89:88:12:12:2f:d2:94:68:e1:92:aa:ce:a6:8e:25:d0:58:
        0e:55:62:8d:96:b8:ef:bd:39:27:5d:2a:52:8b:21:e0:c1:2b:
        f9:7e:32:2f:b5:24:30:20:9b:39:25:c5:3a:7c:2c:6c:bf:af:
        77:e7:3c:fb:1a:f1:af:8b:d4:57:10:b5:d8:d4:40:1f:8b:3a:
        a7:bf:0d:d8:86:1e:72:d0:85:96:e5:30:7a:c5:46:41:dc:f3:
        c5:37:7e:e7:20:9a:42:18:cc:85:fb:84:eb:bf:50:0f:0e:a8:
        e4:c2:0a:64:93:78:0d:f0:76:66:71:db:85:66:15:ac:6c:93:
        e5:c8:61:30
-----BEGIN CERTIFICATE-----
MIIDUjCCAjqgAwIBAgIQUuiu8MXHxl2haAAlQINVrzANBgkqhkiG9w0BAQsFADAS
MRAwDgYDVQQDDAcxOTg1MDI2MB4XDTI1MTIxMzEzNDA0NFoXDTI4MDMxNzEzNDA0
NFowFzEVMBMGA1UEAwwMdnBuX2NsaWVudF8yMIIBIjANBgkqhkiG9w0BAQEFAAOC
AQ8AMIIBCgKCAQEAtWGRVSCdh9EIyUALkLMExkEBsC7zpXfEVlGTp2FKJwhZwlDX
KM2g+7MVrcJ/kdGdrz/Npcd0rlB+AYNn2pXHbq77aISgE8HtWLcAXmLZVSJphr81
OcUNq2uuqaOQ9AwJBxzwvuX7PDwun5zhii60zODNxj6hkf7Fugi1nEEgZv6CN4lH
h/HN49AZwoYaWFoQJlnW9NWdQsghS9dxUDgVdR1CrSHYk+qc7n67KTKVWUwHmZi4
de2dc1qZdjh22gfdJKtFrUEFqwg/z1A7bNqQ/V+yPOOlPdMHHdenDN3yvnjctwW0
d+NzBMnG/I1+pNhs2KnFKWKDxkLqteME1Q1ArQIDAQABo4GeMIGbMAkGA1UdEwQC
MAAwHQYDVR0OBBYEFJ4iteCmMgtSSNEd2VzbxdzUMrvTME0GA1UdIwRGMESAFK+R
Z/CWSaJ7JbqdWSGW0AucpjtQoRakFDASMRAwDgYDVQQDDAcxOTg1MDI2ghR23Bkj
CD/m4YoL4Z/HvumJ80qhAzATBgNVHSUEDDAKBggrBgEFBQcDAjALBgNVHQ8EBAMC
B4AwDQYJKoZIhvcNAQELBQADggEBAN5Vx/bICBbrtx6RbkzcC9VJraMZw6FEbNUa
xRxqCG5iWYUmRlCcX1LOlzjXIBmvbyZ2kRXgVNhoRADkI+gRtHHq3Q5GVab+ky6v
FfQ9C+oiDn0wjlA14yLhQITVLlU7TYvk4jicERzo2dFTjwaA/4BSgHHpv9xWwiG/
k9DTpH6JiBISL9KUaOGSqs6mjiXQWA5VYo2WuO+9OSddKlKLIeDBK/l+Mi+1JDAg
mzklxTp8LGy/r3fnPPsa8a+L1FcQtdjUQB+LOqe/DdiGHnLQhZblMHrFRkHc88U3
fucgmkIYzIX7hOu/UA8OqOTCCmSTeA3wdmZx24VmFaxsk+XIYTA=
-----END CERTIFICATE-----
